; ModuleID = '32/630.c'
source_filename = "32/630.c"
target datalayout = "e-m:e-p270:32:32-p271:32:32-p272:64:64-i64:64-f80:128-n8:16:32:64-S128"
target triple = "x86_64-pc-linux-gnu"

@.str = private unnamed_addr constant [3 x i8] c"%d\00", align 1
@.str.1 = private unnamed_addr constant [5 x i8] c"%s%s\00", align 1
@.str.2 = private unnamed_addr constant [3 x i8] c"%c\00", align 1
@.str.3 = private unnamed_addr constant [2 x i8] c"\0A\00", align 1

; Function Attrs: noinline nounwind uwtable
define dso_local void @main() #0 {
  %1 = alloca [100 x [105 x i8]], align 16
  %2 = alloca i32, align 4
  %3 = alloca i32, align 4
  %4 = alloca i32, align 4
  %5 = alloca i32, align 4
  %6 = alloca i32, align 4
  %7 = alloca i32, align 4
  %8 = alloca i32, align 4
  %9 = call i32 (i8*, ...) @__isoc99_scanf(i8* getelementptr inbounds ([3 x i8], [3 x i8]* @.str, i64 0, i64 0), i32* %6)
  store i32 0, i32* %2, align 4
  br label %10

10:                                               ; preds = %26, %0
  %11 = load i32, i32* %2, align 4
  %12 = load i32, i32* %6, align 4
  %13 = mul nsw i32 2, %12
  %14 = icmp slt i32 %11, %13
  br i1 %14, label %15, label %29

15:                                               ; preds = %10
  %16 = load i32, i32* %2, align 4
  %17 = sext i32 %16 to i64
  %18 = getelementptr inbounds [100 x [105 x i8]], [100 x [105 x i8]]* %1, i64 0, i64 %17
  %19 = getelementptr inbounds [105 x i8], [105 x i8]* %18, i64 0, i64 0
  %20 = load i32, i32* %2, align 4
  %21 = add nsw i32 %20, 1
  %22 = sext i32 %21 to i64
  %23 = getelementptr inbounds [100 x [105 x i8]], [100 x [105 x i8]]* %1, i64 0, i64 %22
  %24 = getelementptr inbounds [105 x i8], [105 x i8]* %23, i64 0, i64 0
  %25 = call i32 (i8*, ...) @__isoc99_scanf(i8* getelementptr inbounds ([5 x i8], [5 x i8]* @.str.1, i64 0, i64 0), i8* %19, i8* %24)
  br label %26

26:                                               ; preds = %15
  %27 = load i32, i32* %2, align 4
  %28 = add nsw i32 %27, 2
  store i32 %28, i32* %2, align 4
  br label %10

29:                                               ; preds = %10
  store i32 0, i32* %2, align 4
  br label %30

30:                                               ; preds = %173, %29
  %31 = load i32, i32* %2, align 4
  %32 = load i32, i32* %6, align 4
  %33 = mul nsw i32 2, %32
  %34 = icmp slt i32 %31, %33
  br i1 %34, label %35, label %176

35:                                               ; preds = %30
  %36 = load i32, i32* %2, align 4
  %37 = sext i32 %36 to i64
  %38 = getelementptr inbounds [100 x [105 x i8]], [100 x [105 x i8]]* %1, i64 0, i64 %37
  %39 = getelementptr inbounds [105 x i8], [105 x i8]* %38, i64 0, i64 0
  %40 = call i64 @strlen(i8* %39) #3
  %41 = trunc i64 %40 to i32
  store i32 %41, i32* %7, align 4
  %42 = load i32, i32* %2, align 4
  %43 = add nsw i32 %42, 1
  %44 = sext i32 %43 to i64
  %45 = getelementptr inbounds [100 x [105 x i8]], [100 x [105 x i8]]* %1, i64 0, i64 %44
  %46 = getelementptr inbounds [105 x i8], [105 x i8]* %45, i64 0, i64 0
  %47 = call i64 @strlen(i8* %46) #3
  %48 = trunc i64 %47 to i32
  store i32 %48, i32* %8, align 4
  %49 = load i32, i32* %7, align 4
  %50 = sub nsw i32 %49, 1
  store i32 %50, i32* %4, align 4
  %51 = load i32, i32* %8, align 4
  %52 = sub nsw i32 %51, 1
  store i32 %52, i32* %5, align 4
  br label %53

53:                                               ; preds = %148, %35
  %54 = load i32, i32* %5, align 4
  %55 = icmp sge i32 %54, 0
  br i1 %55, label %56, label %153

56:                                               ; preds = %53
  %57 = load i32, i32* %2, align 4
  %58 = sext i32 %57 to i64
  %59 = getelementptr inbounds [100 x [105 x i8]], [100 x [105 x i8]]* %1, i64 0, i64 %58
  %60 = load i32, i32* %4, align 4
  %61 = sext i32 %60 to i64
  %62 = getelementptr inbounds [105 x i8], [105 x i8]* %59, i64 0, i64 %61
  %63 = load i8, i8* %62, align 1
  %64 = sext i8 %63 to i32
  %65 = load i32, i32* %2, align 4
  %66 = add nsw i32 %65, 1
  %67 = sext i32 %66 to i64
  %68 = getelementptr inbounds [100 x [105 x i8]], [100 x [105 x i8]]* %1, i64 0, i64 %67
  %69 = load i32, i32* %5, align 4
  %70 = sext i32 %69 to i64
  %71 = getelementptr inbounds [105 x i8], [105 x i8]* %68, i64 0, i64 %70
  %72 = load i8, i8* %71, align 1
  %73 = sext i8 %72 to i32
  %74 = icmp sge i32 %64, %73
  br i1 %74, label %75, label %102

75:                                               ; preds = %56
  %76 = load i32, i32* %2, align 4
  %77 = sext i32 %76 to i64
  %78 = getelementptr inbounds [100 x [105 x i8]], [100 x [105 x i8]]* %1, i64 0, i64 %77
  %79 = load i32, i32* %4, align 4
  %80 = sext i32 %79 to i64
  %81 = getelementptr inbounds [105 x i8], [105 x i8]* %78, i64 0, i64 %80
  %82 = load i8, i8* %81, align 1
  %83 = sext i8 %82 to i32
  %84 = load i32, i32* %2, align 4
  %85 = add nsw i32 %84, 1
  %86 = sext i32 %85 to i64
  %87 = getelementptr inbounds [100 x [105 x i8]], [100 x [105 x i8]]* %1, i64 0, i64 %86
  %88 = load i32, i32* %5, align 4
  %89 = sext i32 %88 to i64
  %90 = getelementptr inbounds [105 x i8], [105 x i8]* %87, i64 0, i64 %89
  %91 = load i8, i8* %90, align 1
  %92 = sext i8 %91 to i32
  %93 = sub nsw i32 %83, %92
  %94 = add nsw i32 %93, 48
  %95 = trunc i32 %94 to i8
  %96 = load i32, i32* %2, align 4
  %97 = sext i32 %96 to i64
  %98 = getelementptr inbounds [100 x [105 x i8]], [100 x [105 x i8]]* %1, i64 0, i64 %97
  %99 = load i32, i32* %4, align 4
  %100 = sext i32 %99 to i64
  %101 = getelementptr inbounds [105 x i8], [105 x i8]* %98, i64 0, i64 %100
  store i8 %95, i8* %101, align 1
  br label %147

102:                                              ; preds = %56
  %103 = load i32, i32* %2, align 4
  %104 = sext i32 %103 to i64
  %105 = getelementptr inbounds [100 x [105 x i8]], [100 x [105 x i8]]* %1, i64 0, i64 %104
  %106 = load i32, i32* %4, align 4
  %107 = sext i32 %106 to i64
  %108 = getelementptr inbounds [105 x i8], [105 x i8]* %105, i64 0, i64 %107
  %109 = load i8, i8* %108, align 1
  %110 = sext i8 %109 to i32
  %111 = add nsw i32 %110, 58
  %112 = load i32, i32* %2, align 4
  %113 = add nsw i32 %112, 1
  %114 = sext i32 %113 to i64
  %115 = getelementptr inbounds [100 x [105 x i8]], [100 x [105 x i8]]* %1, i64 0, i64 %114
  %116 = load i32, i32* %5, align 4
  %117 = sext i32 %116 to i64
  %118 = getelementptr inbounds [105 x i8], [105 x i8]* %115, i64 0, i64 %117
  %119 = load i8, i8* %118, align 1
  %120 = sext i8 %119 to i32
  %121 = sub nsw i32 %111, %120
  %122 = trunc i32 %121 to i8
  %123 = load i32, i32* %2, align 4
  %124 = sext i32 %123 to i64
  %125 = getelementptr inbounds [100 x [105 x i8]], [100 x [105 x i8]]* %1, i64 0, i64 %124
  %126 = load i32, i32* %4, align 4
  %127 = sext i32 %126 to i64
  %128 = getelementptr inbounds [105 x i8], [105 x i8]* %125, i64 0, i64 %127
  store i8 %122, i8* %128, align 1
  %129 = load i32, i32* %2, align 4
  %130 = sext i32 %129 to i64
  %131 = getelementptr inbounds [100 x [105 x i8]], [100 x [105 x i8]]* %1, i64 0, i64 %130
  %132 = load i32, i32* %4, align 4
  %133 = sub nsw i32 %132, 1
  %134 = sext i32 %133 to i64
  %135 = getelementptr inbounds [105 x i8], [105 x i8]* %131, i64 0, i64 %134
  %136 = load i8, i8* %135, align 1
  %137 = sext i8 %136 to i32
  %138 = sub nsw i32 %137, 1
  %139 = trunc i32 %138 to i8
  %140 = load i32, i32* %2, align 4
  %141 = sext i32 %140 to i64
  %142 = getelementptr inbounds [100 x [105 x i8]], [100 x [105 x i8]]* %1, i64 0, i64 %141
  %143 = load i32, i32* %4, align 4
  %144 = sub nsw i32 %143, 1
  %145 = sext i32 %144 to i64
  %146 = getelementptr inbounds [105 x i8], [105 x i8]* %142, i64 0, i64 %145
  store i8 %139, i8* %146, align 1
  br label %147

147:                                              ; preds = %102, %75
  br label %148

148:                                              ; preds = %147
  %149 = load i32, i32* %4, align 4
  %150 = add nsw i32 %149, -1
  store i32 %150, i32* %4, align 4
  %151 = load i32, i32* %5, align 4
  %152 = add nsw i32 %151, -1
  store i32 %152, i32* %5, align 4
  br label %53

153:                                              ; preds = %53
  store i32 0, i32* %3, align 4
  br label %154

154:                                              ; preds = %168, %153
  %155 = load i32, i32* %3, align 4
  %156 = load i32, i32* %7, align 4
  %157 = icmp slt i32 %155, %156
  br i1 %157, label %158, label %171

158:                                              ; preds = %154
  %159 = load i32, i32* %2, align 4
  %160 = sext i32 %159 to i64
  %161 = getelementptr inbounds [100 x [105 x i8]], [100 x [105 x i8]]* %1, i64 0, i64 %160
  %162 = load i32, i32* %3, align 4
  %163 = sext i32 %162 to i64
  %164 = getelementptr inbounds [105 x i8], [105 x i8]* %161, i64 0, i64 %163
  %165 = load i8, i8* %164, align 1
  %166 = sext i8 %165 to i32
  %167 = call i32 (i8*, ...) @printf(i8* getelementptr inbounds ([3 x i8], [3 x i8]* @.str.2, i64 0, i64 0), i32 %166)
  br label %168

168:                                              ; preds = %158
  %169 = load i32, i32* %3, align 4
  %170 = add nsw i32 %169, 1
  store i32 %170, i32* %3, align 4
  br label %154

171:                                              ; preds = %154
  %172 = call i32 (i8*, ...) @printf(i8* getelementptr inbounds ([2 x i8], [2 x i8]* @.str.3, i64 0, i64 0))
  br label %173

173:                                              ; preds = %171
  %174 = load i32, i32* %2, align 4
  %175 = add nsw i32 %174, 2
  store i32 %175, i32* %2, align 4
  br label %30

176:                                              ; preds = %30
  ret void
}

declare dso_local i32 @__isoc99_scanf(i8*, ...) #1

; Function Attrs: nounwind readonly
declare dso_local i64 @strlen(i8*) #2

declare dso_local i32 @printf(i8*, ...) #1


!llvm.module.flags = !{!0}
!llvm.ident = !{!1}

!0 = !{i32 1, !"wchar_size", i32 4}
!1 = !{!"clang version 10.0.0-4ubuntu1 "}
